target datalayout = "e-m:e-p270:32:32-p271:32:32-p272:64:64-i64:64-i128:128-f80:128-n8:16:32:64-S128"
target triple = "x86_64-pc-linux-gnu"

%struct.ident_t = type { i32, i32, i32, i32, ptr }
%"class.ncnn::Mat" = type { ptr, ptr, i64, i32, ptr, i32, i32, i32, i32, i32, i64 }
%"class.ncnn::Option" = type { i8, i32, ptr, ptr, i32, i8, i8, i8, i8, i8, i8, i8, i8, i8, i8, i8, i8, i8, i8, i8, i8, i8, i8, i8, i8, i32, i8, i8, i8, i8, i8, i8, i8, i8, i8, i8, i8, i8 }

@2 = private unnamed_addr constant %struct.ident_t { i32 0, i32 2, i32 0, i32 22, ptr @0 }, align 8

; Function Attrs: alwaysinline mustprogress nounwind uwtable
define linkonce_odr hidden noundef ptr @_ZN4ncnn3MatcvPT_IfEEv(ptr noundef nonnull align 8 dereferenceable(72) %0) #3 comdat align 2 {
  %2 = alloca ptr, align 8
  store ptr %0, ptr %2, align 8, !tbaa !42
  %3 = load ptr, ptr %2, align 8
  %4 = getelementptr inbounds nuw %"class.ncnn::Mat", ptr %3, i32 0, i32 0
  %5 = load ptr, ptr %4, align 8, !tbaa !56
  ret ptr %5
}

; Function Attrs: mustprogress uwtable
define hidden noundef i32 @_ZNK4ncnn9BatchNorm15forward_inplaceERNS_3MatERKNS_6OptionE(ptr noundef nonnull align 8 dereferenceable(648) %0, ptr noundef nonnull align 8 dereferenceable(72) %1, ptr noundef nonnull align 8 dereferenceable(64) %2) unnamed_addr #1 align 2 {
  %4 = alloca ptr, align 8
  %5 = alloca ptr, align 8
  %6 = alloca ptr, align 8
  %7 = alloca i32, align 4
  %8 = alloca i32, align 4
  %9 = alloca ptr, align 8
  %10 = alloca i32, align 4
  %11 = alloca i32, align 4
  %12 = alloca i32, align 4
  %13 = alloca i32, align 4
  %14 = alloca i32, align 4
  %15 = alloca i32, align 4
  %16 = alloca i32, align 4
  %17 = call i32 @__kmpc_global_thread_num(ptr @2)
  store ptr %0, ptr %4, align 8, !tbaa !4
  store ptr %1, ptr %5, align 8, !tbaa !42
  store ptr %2, ptr %6, align 8, !tbaa !43
  %18 = load ptr, ptr %4, align 8
  call void @llvm.lifetime.start.p0(i64 4, ptr %7) #10
  %19 = load ptr, ptr %5, align 8, !tbaa !42
  %20 = getelementptr inbounds nuw %"class.ncnn::Mat", ptr %19, i32 0, i32 5
  %21 = load i32, ptr %20, align 8, !tbaa !45
  store i32 %21, ptr %7, align 4, !tbaa !38
  %22 = load i32, ptr %7, align 4, !tbaa !38
  %23 = icmp eq i32 %22, 1
  br i1 %23, label %24, label %33

24:                                               ; preds = %3
  call void @llvm.lifetime.start.p0(i64 4, ptr %8) #10
  %25 = load ptr, ptr %5, align 8, !tbaa !42
  %26 = getelementptr inbounds nuw %"class.ncnn::Mat", ptr %25, i32 0, i32 6
  %27 = load i32, ptr %26, align 4, !tbaa !46
  store i32 %27, ptr %8, align 4, !tbaa !38
  call void @llvm.lifetime.start.p0(i64 8, ptr %9) #10
  %28 = load ptr, ptr %5, align 8, !tbaa !42
  %29 = call noundef ptr @_ZN4ncnn3MatcvPT_IfEEv(ptr noundef nonnull align 8 dereferenceable(72) %28)
  store ptr %29, ptr %9, align 8, !tbaa !47
  %30 = load ptr, ptr %6, align 8, !tbaa !43
  %31 = getelementptr inbounds nuw %"class.ncnn::Option", ptr %30, i32 0, i32 1
  %32 = load i32, ptr %31, align 4, !tbaa !49
  call void @__kmpc_push_num_threads(ptr @2, i32 %17, i32 %32)
  call void (ptr, i32, ptr, ...) @__kmpc_fork_call(ptr @2, i32 3, ptr @_ZNK4ncnn9BatchNorm15forward_inplaceERNS_3MatERKNS_6OptionE.omp_outlined, ptr %8, ptr %9, ptr %18)
  call void @llvm.lifetime.end.p0(i64 8, ptr %9) #10
  call void @llvm.lifetime.end.p0(i64 4, ptr %8) #10
  br label %33

33:                                               ; preds = %24, %3
  %34 = load i32, ptr %7, align 4, !tbaa !38
  %35 = icmp eq i32 %34, 2
  br i1 %35, label %36, label %47

36:                                               ; preds = %33
  call void @llvm.lifetime.start.p0(i64 4, ptr %10) #10
  %37 = load ptr, ptr %5, align 8, !tbaa !42
  %38 = getelementptr inbounds nuw %"class.ncnn::Mat", ptr %37, i32 0, i32 6
  %39 = load i32, ptr %38, align 4, !tbaa !46
  store i32 %39, ptr %10, align 4, !tbaa !38
  call void @llvm.lifetime.start.p0(i64 4, ptr %11) #10
  %40 = load ptr, ptr %5, align 8, !tbaa !42
  %41 = getelementptr inbounds nuw %"class.ncnn::Mat", ptr %40, i32 0, i32 7
  %42 = load i32, ptr %41, align 8, !tbaa !51
  store i32 %42, ptr %11, align 4, !tbaa !38
  %43 = load ptr, ptr %6, align 8, !tbaa !43
  %44 = getelementptr inbounds nuw %"class.ncnn::Option", ptr %43, i32 0, i32 1
  %45 = load i32, ptr %44, align 4, !tbaa !49
  call void @__kmpc_push_num_threads(ptr @2, i32 %17, i32 %45)
  %46 = load ptr, ptr %5, align 8, !tbaa !42
  call void (ptr, i32, ptr, ...) @__kmpc_fork_call(ptr @2, i32 4, ptr @_ZNK4ncnn9BatchNorm15forward_inplaceERNS_3MatERKNS_6OptionE.omp_outlined.1, ptr %11, ptr %46, ptr %18, ptr %10)
  call void @llvm.lifetime.end.p0(i64 4, ptr %11) #10
  call void @llvm.lifetime.end.p0(i64 4, ptr %10) #10
  br label %47

47:                                               ; preds = %36, %33
  %48 = load i32, ptr %7, align 4, !tbaa !38
  %49 = icmp eq i32 %48, 3
  br i1 %49, label %53, label %50

50:                                               ; preds = %47
  %51 = load i32, ptr %7, align 4, !tbaa !38
  %52 = icmp eq i32 %51, 4
  br i1 %52, label %53, label %75

53:                                               ; preds = %50, %47
  call void @llvm.lifetime.start.p0(i64 4, ptr %12) #10
  %54 = load ptr, ptr %5, align 8, !tbaa !42
  %55 = getelementptr inbounds nuw %"class.ncnn::Mat", ptr %54, i32 0, i32 6
  %56 = load i32, ptr %55, align 4, !tbaa !46
  store i32 %56, ptr %12, align 4, !tbaa !38
  call void @llvm.lifetime.start.p0(i64 4, ptr %13) #10
  %57 = load ptr, ptr %5, align 8, !tbaa !42
  %58 = getelementptr inbounds nuw %"class.ncnn::Mat", ptr %57, i32 0, i32 7
  %59 = load i32, ptr %58, align 8, !tbaa !51
  store i32 %59, ptr %13, align 4, !tbaa !38
  call void @llvm.lifetime.start.p0(i64 4, ptr %14) #10
  %60 = load ptr, ptr %5, align 8, !tbaa !42
  %61 = getelementptr inbounds nuw %"class.ncnn::Mat", ptr %60, i32 0, i32 8
  %62 = load i32, ptr %61, align 4, !tbaa !52
  store i32 %62, ptr %14, align 4, !tbaa !38
  call void @llvm.lifetime.start.p0(i64 4, ptr %15) #10
  %63 = load ptr, ptr %5, align 8, !tbaa !42
  %64 = getelementptr inbounds nuw %"class.ncnn::Mat", ptr %63, i32 0, i32 9
  %65 = load i32, ptr %64, align 8, !tbaa !53
  store i32 %65, ptr %15, align 4, !tbaa !38
  call void @llvm.lifetime.start.p0(i64 4, ptr %16) #10
  %66 = load i32, ptr %12, align 4, !tbaa !38
  %67 = load i32, ptr %13, align 4, !tbaa !38
  %68 = mul nsw i32 %66, %67
  %69 = load i32, ptr %14, align 4, !tbaa !38
  %70 = mul nsw i32 %68, %69
  store i32 %70, ptr %16, align 4, !tbaa !38
  %71 = load ptr, ptr %6, align 8, !tbaa !43
  %72 = getelementptr inbounds nuw %"class.ncnn::Option", ptr %71, i32 0, i32 1
  %73 = load i32, ptr %72, align 4, !tbaa !49
  call void @__kmpc_push_num_threads(ptr @2, i32 %17, i32 %73)
  %74 = load ptr, ptr %5, align 8, !tbaa !42
  call void (ptr, i32, ptr, ...) @__kmpc_fork_call(ptr @2, i32 4, ptr @_ZNK4ncnn9BatchNorm15forward_inplaceERNS_3MatERKNS_6OptionE.omp_outlined.2, ptr %15, ptr %74, ptr %18, ptr %16)
  call void @llvm.lifetime.end.p0(i64 4, ptr %16) #10
  call void @llvm.lifetime.end.p0(i64 4, ptr %15) #10
  call void @llvm.lifetime.end.p0(i64 4, ptr %14) #10
  call void @llvm.lifetime.end.p0(i64 4, ptr %13) #10
  call void @llvm.lifetime.end.p0(i64 4, ptr %12) #10
  br label %75

75:                                               ; preds = %53, %50
  call void @llvm.lifetime.end.p0(i64 4, ptr %7) #10
  ret i32 0
}