; Function Attrs: mustprogress nounwind uwtable
define hidden noundef i32 @_ZNK4ncnn9BatchNorm15forward_inplaceERNS_3MatERKNS_6OptionE(ptr noundef nonnull align 8 dereferenceable(648) %0, ptr noundef nonnull align 8 dereferenceable(72) %1, ptr noundef nonnull readonly align 8 captures(none) dereferenceable(64) %2) unnamed_addr #3 align 2 {
  %4 = alloca i32, align 4
  %5 = alloca ptr, align 8
  %6 = alloca i32, align 4
  %7 = alloca i32, align 4
  %8 = alloca i32, align 4
  %9 = alloca i32, align 4
  %10 = tail call i32 @__kmpc_global_thread_num(ptr nonnull @2)
  %11 = getelementptr inbounds nuw i8, ptr %1, i64 40
  %12 = load i32, ptr %11, align 8, !tbaa !38
  switch i32 %12, label %26 [
    i32 1, label %13
    i32 2, label %19
  ]

13:                                               ; preds = %3
  call void @llvm.lifetime.start.p0(i64 4, ptr nonnull %4) #11
  %14 = getelementptr inbounds nuw i8, ptr %1, i64 44
  %15 = load i32, ptr %14, align 4, !tbaa !39
  store i32 %15, ptr %4, align 4, !tbaa !46
  call void @llvm.lifetime.start.p0(i64 8, ptr nonnull %5) #11
  %16 = load ptr, ptr %1, align 8, !tbaa !16
  store ptr %16, ptr %5, align 8, !tbaa !47
  %17 = getelementptr inbounds nuw i8, ptr %2, i64 4
  %18 = load i32, ptr %17, align 4, !tbaa !49
  tail call void @__kmpc_push_num_threads(ptr nonnull @2, i32 %10, i32 %18)
  call void (ptr, i32, ptr, ...) @__kmpc_fork_call(ptr nonnull @2, i32 3, ptr nonnull @_ZNK4ncnn9BatchNorm15forward_inplaceERNS_3MatERKNS_6OptionE.omp_outlined, ptr nonnull %4, ptr nonnull %5, ptr nonnull %0)
  call void @llvm.lifetime.end.p0(i64 8, ptr nonnull %5) #11
  call void @llvm.lifetime.end.p0(i64 4, ptr nonnull %4) #11
  br label %.thread

19:                                               ; preds = %3
  call void @llvm.lifetime.start.p0(i64 4, ptr nonnull %6) #11
  %20 = getelementptr inbounds nuw i8, ptr %1, i64 44
  %21 = load i32, ptr %20, align 4, !tbaa !39
  store i32 %21, ptr %6, align 4, !tbaa !46
  call void @llvm.lifetime.start.p0(i64 4, ptr nonnull %7) #11
  %22 = getelementptr inbounds nuw i8, ptr %1, i64 48
  %23 = load i32, ptr %22, align 8, !tbaa !40
  store i32 %23, ptr %7, align 4, !tbaa !46
  %24 = getelementptr inbounds nuw i8, ptr %2, i64 4
  %25 = load i32, ptr %24, align 4, !tbaa !49
  tail call void @__kmpc_push_num_threads(ptr nonnull @2, i32 %10, i32 %25)
  call void (ptr, i32, ptr, ...) @__kmpc_fork_call(ptr nonnull @2, i32 4, ptr nonnull @_ZNK4ncnn9BatchNorm15forward_inplaceERNS_3MatERKNS_6OptionE.omp_outlined.1, ptr nonnull %7, ptr nonnull %1, ptr nonnull %0, ptr nonnull %6)
  call void @llvm.lifetime.end.p0(i64 4, ptr nonnull %7) #11
  call void @llvm.lifetime.end.p0(i64 4, ptr nonnull %6) #11
  br label %.thread

26:                                               ; preds = %3
  %27 = add i32 %12, -3
  %or.cond = icmp ult i32 %27, 2
  br i1 %or.cond, label %28, label %.thread

28:                                               ; preds = %26
  %29 = getelementptr inbounds nuw i8, ptr %1, i64 44
  %30 = load i32, ptr %29, align 4, !tbaa !39
  %31 = getelementptr inbounds nuw i8, ptr %1, i64 48
  %32 = load i32, ptr %31, align 8, !tbaa !40
  %33 = getelementptr inbounds nuw i8, ptr %1, i64 52
  %34 = load i32, ptr %33, align 4, !tbaa !41
  call void @llvm.lifetime.start.p0(i64 4, ptr nonnull %8) #11
  %35 = getelementptr inbounds nuw i8, ptr %1, i64 56
  %36 = load i32, ptr %35, align 8, !tbaa !42
  store i32 %36, ptr %8, align 4, !tbaa !46
  call void @llvm.lifetime.start.p0(i64 4, ptr nonnull %9) #11
  %37 = mul nsw i32 %32, %30
  %38 = mul nsw i32 %37, %34
  store i32 %38, ptr %9, align 4, !tbaa !46
  %39 = getelementptr inbounds nuw i8, ptr %2, i64 4
  %40 = load i32, ptr %39, align 4, !tbaa !49
  tail call void @__kmpc_push_num_threads(ptr nonnull @2, i32 %10, i32 %40)
  call void (ptr, i32, ptr, ...) @__kmpc_fork_call(ptr nonnull @2, i32 4, ptr nonnull @_ZNK4ncnn9BatchNorm15forward_inplaceERNS_3MatERKNS_6OptionE.omp_outlined.2, ptr nonnull %8, ptr nonnull %1, ptr nonnull %0, ptr nonnull %9)
  call void @llvm.lifetime.end.p0(i64 4, ptr nonnull %9) #11
  call void @llvm.lifetime.end.p0(i64 4, ptr nonnull %8) #11
  br label %.thread

.thread:                                          ; preds = %19, %13, %26, %28
  ret i32 0
}